target datalayout = "e-m:e-p270:32:32-p271:32:32-p272:64:64-i64:64-i128:128-f80:128-n8:16:32:64-S128"
target triple = "x86_64-pc-linux-gnu"

%struct.optstruct = type { ptr, ptr, ptr, i64, i32, i32, i32, i32, ptr, ptr, ptr }

@.str.5 = private unnamed_addr constant [12 x i8] c"ExcludePath\00", align 1
@.str.6 = private unnamed_addr constant [14 x i8] c"%s: Excluded\0A\00", align 1

; Function Attrs: nounwind uwtable
define i32 @chkpath(ptr noundef %0, ptr noundef %1) #0 {
  %3 = alloca ptr, align 8
  %4 = alloca ptr, align 8
  %5 = alloca i32, align 4
  %6 = alloca ptr, align 8
  %7 = alloca ptr, align 8
  store ptr %0, ptr %3, align 8
  store ptr %1, ptr %4, align 8
  store i32 0, ptr %5, align 4
  store ptr null, ptr %7, align 8
  %8 = load ptr, ptr %3, align 8
  %9 = icmp ne ptr %8, null
  br i1 %9, label %11, label %10

10:                                               ; preds = %2
  store i32 1, ptr %5, align 4
  br label %37

11:                                               ; preds = %2
  %12 = load ptr, ptr %4, align 8
  %13 = call ptr @optget(ptr noundef %12, ptr noundef @.str.5)
  store ptr %13, ptr %6, align 8
  %14 = getelementptr inbounds %struct.optstruct, ptr %13, i32 0, i32 4
  %15 = load i32, ptr %14, align 8
  %16 = icmp ne i32 %15, 0
  br i1 %16, label %17, label %36

17:                                               ; preds = %11
  br label %18

18:                                               ; preds = %31, %17
  %19 = load ptr, ptr %6, align 8
  %20 = icmp ne ptr %19, null
  br i1 %20, label %21, label %35

21:                                               ; preds = %18
  %22 = load ptr, ptr %3, align 8
  %23 = load ptr, ptr %6, align 8
  %24 = getelementptr inbounds %struct.optstruct, ptr %23, i32 0, i32 2
  %25 = load ptr, ptr %24, align 8
  %26 = call i32 @match_regex(ptr noundef %22, ptr noundef %25)
  %27 = icmp eq i32 %26, 1
  br i1 %27, label %28, label %31

28:                                               ; preds = %21
  %29 = load ptr, ptr %3, align 8
  %30 = call i32 (i32, ptr, ...) @logg(i32 noundef 2, ptr noundef @.str.6, ptr noundef %29)
  store i32 1, ptr %5, align 4
  br label %37

31:                                               ; preds = %21
  %32 = load ptr, ptr %6, align 8
  %33 = getelementptr inbounds %struct.optstruct, ptr %32, i32 0, i32 8
  %34 = load ptr, ptr %33, align 8
  store ptr %34, ptr %6, align 8
  br label %18

35:                                               ; preds = %18
  br label %36

36:                                               ; preds = %35, %11
  br label %37

37:                                               ; preds = %36, %28, %10
  %38 = load ptr, ptr %7, align 8
  %39 = icmp ne ptr null, %38
  br i1 %39, label %40, label %42

40:                                               ; preds = %37
  %41 = load ptr, ptr %7, align 8
  call void @free(ptr noundef %41) #9
  br label %42

42:                                               ; preds = %40, %37
  %43 = load i32, ptr %5, align 4
  ret i32 %43
}