; Function Attrs: nounwind uwtable
define noundef i32 @chkpath(ptr noundef %0, ptr noundef %1) local_unnamed_addr #0 {
  %.not = icmp eq ptr %0, null
  br i1 %.not, label %.loopexit, label %3

3:                                                ; preds = %2
  %4 = tail call ptr @optget(ptr noundef %1, ptr noundef nonnull @.str.5) #14
  %5 = getelementptr inbounds i8, ptr %4, i64 32
  %6 = load i32, ptr %5, align 8
  %7 = icmp ne i32 %6, 0
  %8 = icmp ne ptr %4, null
  %or.cond = and i1 %8, %7
  br i1 %or.cond, label %.preheader, label %.loopexit

.preheader:                                       ; preds = %3, %15
  %.010 = phi ptr [ %17, %15 ], [ %4, %3 ]
  %9 = getelementptr inbounds i8, ptr %.010, i64 16
  %10 = load ptr, ptr %9, align 8
  %11 = tail call i32 @match_regex(ptr noundef nonnull %0, ptr noundef %10) #14
  %12 = icmp eq i32 %11, 1
  br i1 %12, label %13, label %15

13:                                               ; preds = %.preheader
  %14 = tail call i32 (i32, ptr, ...) @logg(i32 noundef 2, ptr noundef nonnull @.str.6, ptr noundef nonnull %0) #14
  br label %.loopexit

15:                                               ; preds = %.preheader
  %16 = getelementptr inbounds i8, ptr %.010, i64 48
  %17 = load ptr, ptr %16, align 8
  %.old1.not = icmp eq ptr %17, null
  br i1 %.old1.not, label %.loopexit, label %.preheader

.loopexit:                                        ; preds = %15, %13, %3, %2
  %.0 = phi i32 [ 1, %13 ], [ 0, %3 ], [ 1, %2 ], [ 0, %15 ]
  ret i32 %.0
}